target datalayout = "e-m:e-p270:32:32-p271:32:32-p272:64:64-i64:64-i128:128-f80:128-n8:16:32:64-S128"
target triple = "x86_64-pc-linux-gnu"

%"class.icu_77::CollationIterator::CEBuffer" = type { i32, %"class.icu_77::MaybeStackArray.0" }
%"class.icu_77::MaybeStackArray.0" = type { ptr, i32, i8, [40 x i64] }
%"class.icu_77::CollationIterator" = type <{ %"class.icu_77::UObject", ptr, ptr, %"class.icu_77::CollationIterator::CEBuffer", i32, [4 x i8], ptr, i32, i8, [3 x i8] }>
%"class.icu_77::UObject" = type { ptr }
%"class.std::type_info" = type { ptr, ptr }

; Function Attrs: mustprogress nounwind uwtable
define linkonce_odr noundef nonnull align 8 dereferenceable(8) ptr @_ZNK6icu_7715MaybeStackArrayIlLi40EEixEl(ptr noundef nonnull align 8 dereferenceable(336) %0, i64 noundef %1) #0 comdat align 2 {
  %3 = alloca ptr, align 8
  %4 = alloca i64, align 8
  store ptr %0, ptr %3, align 8, !tbaa !25
  store i64 %1, ptr %4, align 8, !tbaa !18
  %5 = load ptr, ptr %3, align 8
  %6 = getelementptr inbounds nuw %"class.icu_77::MaybeStackArray.0", ptr %5, i32 0, i32 0
  %7 = load ptr, ptr %6, align 8, !tbaa !35
  %8 = load i64, ptr %4, align 8, !tbaa !18
  %9 = getelementptr inbounds i64, ptr %7, i64 %8
  ret ptr %9
}

; Function Attrs: mustprogress nounwind uwtable
define linkonce_odr noundef ptr @_ZNKSt9type_info4nameEv(ptr noundef nonnull align 8 dereferenceable(16) %0) #0 comdat align 2 {
  %2 = alloca ptr, align 8
  store ptr %0, ptr %2, align 8, !tbaa !58
  %3 = load ptr, ptr %2, align 8
  %4 = getelementptr inbounds nuw %"class.std::type_info", ptr %3, i32 0, i32 1
  %5 = load ptr, ptr %4, align 8, !tbaa !60
  %6 = getelementptr inbounds i8, ptr %5, i64 0
  %7 = load i8, ptr %6, align 1, !tbaa !62
  %8 = sext i8 %7 to i32
  %9 = icmp eq i32 %8, 42
  br i1 %9, label %10, label %14

10:                                               ; preds = %1
  %11 = getelementptr inbounds nuw %"class.std::type_info", ptr %3, i32 0, i32 1
  %12 = load ptr, ptr %11, align 8, !tbaa !60
  %13 = getelementptr inbounds i8, ptr %12, i64 1
  br label %17

14:                                               ; preds = %1
  %15 = getelementptr inbounds nuw %"class.std::type_info", ptr %3, i32 0, i32 1
  %16 = load ptr, ptr %15, align 8, !tbaa !60
  br label %17

17:                                               ; preds = %14, %10
  %18 = phi ptr [ %13, %10 ], [ %16, %14 ]
  ret ptr %18
}

; Function Attrs: inlinehint mustprogress uwtable
define linkonce_odr noundef i64 @_ZNK6icu_7717CollationIterator8CEBuffer3getEi(ptr noundef nonnull align 8 dereferenceable(344) %0, i32 noundef %1) #3 comdat align 2 {
  %3 = alloca ptr, align 8
  %4 = alloca i32, align 4
  store ptr %0, ptr %3, align 8, !tbaa !23
  store i32 %1, ptr %4, align 4, !tbaa !14
  %5 = load ptr, ptr %3, align 8
  %6 = getelementptr inbounds nuw %"class.icu_77::CollationIterator::CEBuffer", ptr %5, i32 0, i32 1
  %7 = load i32, ptr %4, align 4, !tbaa !14
  %8 = sext i32 %7 to i64
  %9 = call noundef nonnull align 8 dereferenceable(8) ptr @_ZNK6icu_7715MaybeStackArrayIlLi40EEixEl(ptr noundef nonnull align 8 dereferenceable(336) %6, i64 noundef %8)
  %10 = load i64, ptr %9, align 8, !tbaa !18
  ret i64 %10
}

; Function Attrs: inlinehint mustprogress nounwind uwtable
define linkonce_odr noundef zeroext i1 @_ZNKSt9type_infoeqERKS_(ptr noundef nonnull align 8 dereferenceable(16) %0, ptr noundef nonnull align 8 dereferenceable(16) %1) #2 comdat align 2 {
  %3 = alloca i1, align 1
  %4 = alloca ptr, align 8
  %5 = alloca ptr, align 8
  store ptr %0, ptr %4, align 8, !tbaa !58
  store ptr %1, ptr %5, align 8, !tbaa !58
  %6 = load ptr, ptr %4, align 8
  %7 = getelementptr inbounds nuw %"class.std::type_info", ptr %6, i32 0, i32 1
  %8 = load ptr, ptr %7, align 8, !tbaa !60
  %9 = load ptr, ptr %5, align 8, !tbaa !58
  %10 = getelementptr inbounds nuw %"class.std::type_info", ptr %9, i32 0, i32 1
  %11 = load ptr, ptr %10, align 8, !tbaa !60
  %12 = icmp eq ptr %8, %11
  br i1 %12, label %13, label %14

13:                                               ; preds = %2
  store i1 true, ptr %3, align 1
  br label %30

14:                                               ; preds = %2
  %15 = getelementptr inbounds nuw %"class.std::type_info", ptr %6, i32 0, i32 1
  %16 = load ptr, ptr %15, align 8, !tbaa !60
  %17 = getelementptr inbounds i8, ptr %16, i64 0
  %18 = load i8, ptr %17, align 1, !tbaa !62
  %19 = sext i8 %18 to i32
  %20 = icmp ne i32 %19, 42
  br i1 %20, label %21, label %28

21:                                               ; preds = %14
  %22 = getelementptr inbounds nuw %"class.std::type_info", ptr %6, i32 0, i32 1
  %23 = load ptr, ptr %22, align 8, !tbaa !60
  %24 = load ptr, ptr %5, align 8, !tbaa !58
  %25 = call noundef ptr @_ZNKSt9type_info4nameEv(ptr noundef nonnull align 8 dereferenceable(16) %24) #11
  %26 = call i32 @strcmp(ptr noundef %23, ptr noundef %25) #11
  %27 = icmp eq i32 %26, 0
  br label %28

28:                                               ; preds = %21, %14
  %29 = phi i1 [ false, %14 ], [ %27, %21 ]
  store i1 %29, ptr %3, align 1
  br label %30

30:                                               ; preds = %28, %13
  %31 = load i1, ptr %3, align 1
  ret i1 %31
}

; Function Attrs: mustprogress uwtable
define noundef zeroext i1 @_ZNK6icu_7717CollationIteratoreqERKS0_(ptr noundef nonnull align 8 dereferenceable(389) %0, ptr noundef nonnull align 8 dereferenceable(389) %1) unnamed_addr #1 align 2 {
  %3 = alloca i1, align 1
  %4 = alloca ptr, align 8
  %5 = alloca ptr, align 8
  %6 = alloca i32, align 4
  %7 = alloca i32, align 4
  store ptr %0, ptr %4, align 8, !tbaa !37
  store ptr %1, ptr %5, align 8, !tbaa !37
  %8 = load ptr, ptr %4, align 8
  %9 = icmp eq ptr %8, null
  br i1 %9, label %10, label %11

10:                                               ; preds = %2
  call void @__cxa_bad_typeid() #14
  unreachable

11:                                               ; preds = %2
  %12 = load ptr, ptr %8, align 8, !tbaa !39
  %13 = getelementptr inbounds ptr, ptr %12, i64 -1
  %14 = load ptr, ptr %13, align 8
  %15 = load ptr, ptr %5, align 8, !tbaa !37
  %16 = load ptr, ptr %15, align 8, !tbaa !39
  %17 = getelementptr inbounds ptr, ptr %16, i64 -1
  %18 = load ptr, ptr %17, align 8
  %19 = call noundef zeroext i1 @_ZNKSt9type_infoeqERKS_(ptr noundef nonnull align 8 dereferenceable(16) %14, ptr noundef nonnull align 8 dereferenceable(16) %18) #11
  br i1 %19, label %20, label %52

20:                                               ; preds = %11
  %21 = getelementptr inbounds nuw %"class.icu_77::CollationIterator", ptr %8, i32 0, i32 3
  %22 = getelementptr inbounds nuw %"class.icu_77::CollationIterator::CEBuffer", ptr %21, i32 0, i32 0
  %23 = load i32, ptr %22, align 8, !tbaa !52
  %24 = load ptr, ptr %5, align 8, !tbaa !37
  %25 = getelementptr inbounds nuw %"class.icu_77::CollationIterator", ptr %24, i32 0, i32 3
  %26 = getelementptr inbounds nuw %"class.icu_77::CollationIterator::CEBuffer", ptr %25, i32 0, i32 0
  %27 = load i32, ptr %26, align 8, !tbaa !52
  %28 = icmp eq i32 %23, %27
  br i1 %28, label %29, label %52

29:                                               ; preds = %20
  %30 = getelementptr inbounds nuw %"class.icu_77::CollationIterator", ptr %8, i32 0, i32 4
  %31 = load i32, ptr %30, align 8, !tbaa !48
  %32 = load ptr, ptr %5, align 8, !tbaa !37
  %33 = getelementptr inbounds nuw %"class.icu_77::CollationIterator", ptr %32, i32 0, i32 4
  %34 = load i32, ptr %33, align 8, !tbaa !48
  %35 = icmp eq i32 %31, %34
  br i1 %35, label %36, label %52

36:                                               ; preds = %29
  %37 = getelementptr inbounds nuw %"class.icu_77::CollationIterator", ptr %8, i32 0, i32 7
  %38 = load i32, ptr %37, align 8, !tbaa !50
  %39 = load ptr, ptr %5, align 8, !tbaa !37
  %40 = getelementptr inbounds nuw %"class.icu_77::CollationIterator", ptr %39, i32 0, i32 7
  %41 = load i32, ptr %40, align 8, !tbaa !50
  %42 = icmp eq i32 %38, %41
  br i1 %42, label %43, label %52

43:                                               ; preds = %36
  %44 = getelementptr inbounds nuw %"class.icu_77::CollationIterator", ptr %8, i32 0, i32 8
  %45 = load i8, ptr %44, align 4, !tbaa !51
  %46 = sext i8 %45 to i32
  %47 = load ptr, ptr %5, align 8, !tbaa !37
  %48 = getelementptr inbounds nuw %"class.icu_77::CollationIterator", ptr %47, i32 0, i32 8
  %49 = load i8, ptr %48, align 4, !tbaa !51
  %50 = sext i8 %49 to i32
  %51 = icmp eq i32 %46, %50
  br i1 %51, label %53, label %52

52:                                               ; preds = %43, %36, %29, %20, %11
  store i1 false, ptr %3, align 1
  br label %78

53:                                               ; preds = %43
  call void @llvm.lifetime.start.p0(i64 4, ptr %6) #11
  store i32 0, ptr %6, align 4, !tbaa !14
  br label %54

54:                                               ; preds = %72, %53
  %55 = load i32, ptr %6, align 4, !tbaa !14
  %56 = getelementptr inbounds nuw %"class.icu_77::CollationIterator", ptr %8, i32 0, i32 3
  %57 = getelementptr inbounds nuw %"class.icu_77::CollationIterator::CEBuffer", ptr %56, i32 0, i32 0
  %58 = load i32, ptr %57, align 8, !tbaa !52
  %59 = icmp slt i32 %55, %58
  br i1 %59, label %61, label %60

60:                                               ; preds = %54
  store i32 2, ptr %7, align 4
  br label %75

61:                                               ; preds = %54
  %62 = getelementptr inbounds nuw %"class.icu_77::CollationIterator", ptr %8, i32 0, i32 3
  %63 = load i32, ptr %6, align 4, !tbaa !14
  %64 = call noundef i64 @_ZNK6icu_7717CollationIterator8CEBuffer3getEi(ptr noundef nonnull align 8 dereferenceable(344) %62, i32 noundef %63)
  %65 = load ptr, ptr %5, align 8, !tbaa !37
  %66 = getelementptr inbounds nuw %"class.icu_77::CollationIterator", ptr %65, i32 0, i32 3
  %67 = load i32, ptr %6, align 4, !tbaa !14
  %68 = call noundef i64 @_ZNK6icu_7717CollationIterator8CEBuffer3getEi(ptr noundef nonnull align 8 dereferenceable(344) %66, i32 noundef %67)
  %69 = icmp ne i64 %64, %68
  br i1 %69, label %70, label %71

70:                                               ; preds = %61
  store i1 false, ptr %3, align 1
  store i32 1, ptr %7, align 4
  br label %75

71:                                               ; preds = %61
  br label %72

72:                                               ; preds = %71
  %73 = load i32, ptr %6, align 4, !tbaa !14
  %74 = add nsw i32 %73, 1
  store i32 %74, ptr %6, align 4, !tbaa !14
  br label %54, !llvm.loop !57

75:                                               ; preds = %70, %60
  call void @llvm.lifetime.end.p0(i64 4, ptr %6) #11
  %76 = load i32, ptr %7, align 4
  switch i32 %76, label %80 [
    i32 2, label %77
    i32 1, label %78
  ]

77:                                               ; preds = %75
  store i1 true, ptr %3, align 1
  br label %78

78:                                               ; preds = %77, %75, %52
  %79 = load i1, ptr %3, align 1
  ret i1 %79

80:                                               ; preds = %75
  unreachable
}