; Function Attrs: mustprogress nofree nounwind willreturn memory(read, inaccessiblemem: none) uwtable
define noundef zeroext i1 @_ZNK6icu_7717CollationIteratoreqERKS0_(ptr noundef nonnull readonly align 8 captures(none) dereferenceable(389) %0, ptr noundef nonnull readonly align 8 captures(none) dereferenceable(389) %1) unnamed_addr #13 align 2 {
  %3 = load ptr, ptr %0, align 8, !tbaa !24
  %4 = getelementptr inbounds i8, ptr %3, i64 -8
  %5 = load ptr, ptr %4, align 8
  %6 = load ptr, ptr %1, align 8, !tbaa !24
  %7 = getelementptr inbounds i8, ptr %6, i64 -8
  %8 = load ptr, ptr %7, align 8
  %9 = getelementptr inbounds nuw i8, ptr %5, i64 8
  %10 = load ptr, ptr %9, align 8, !tbaa !41
  %11 = getelementptr inbounds nuw i8, ptr %8, i64 8
  %12 = load ptr, ptr %11, align 8, !tbaa !41
  %13 = icmp eq ptr %10, %12
  br i1 %13, label %_ZNKSt9type_infoeqERKS_.exit.thread, label %14

14:                                               ; preds = %2
  %15 = load i8, ptr %10, align 1, !tbaa !43
  %.not.i = icmp eq i8 %15, 42
  br i1 %.not.i, label %_ZNKSt9type_infoeqERKS_.exit.thread15, label %_ZNKSt9type_infoeqERKS_.exit

_ZNKSt9type_infoeqERKS_.exit:                     ; preds = %14
  %16 = load i8, ptr %12, align 1, !tbaa !43
  %17 = icmp eq i8 %16, 42
  %.idx.i.i = zext i1 %17 to i64
  %18 = getelementptr inbounds nuw i8, ptr %12, i64 %.idx.i.i
  %19 = tail call i32 @strcmp(ptr noundef nonnull dereferenceable(1) %10, ptr noundef nonnull dereferenceable(1) %18) #21
  %20 = icmp eq i32 %19, 0
  br i1 %20, label %_ZNKSt9type_infoeqERKS_.exit.thread, label %_ZNKSt9type_infoeqERKS_.exit.thread15

_ZNKSt9type_infoeqERKS_.exit.thread:              ; preds = %2, %_ZNKSt9type_infoeqERKS_.exit
  %21 = getelementptr inbounds nuw i8, ptr %0, i64 24
  %22 = load i32, ptr %21, align 8, !tbaa !37
  %23 = getelementptr inbounds nuw i8, ptr %1, i64 24
  %24 = load i32, ptr %23, align 8, !tbaa !37
  %25 = icmp eq i32 %22, %24
  br i1 %25, label %26, label %_ZNKSt9type_infoeqERKS_.exit.thread15

26:                                               ; preds = %_ZNKSt9type_infoeqERKS_.exit.thread
  %27 = getelementptr inbounds nuw i8, ptr %0, i64 368
  %28 = load i32, ptr %27, align 8, !tbaa !33
  %29 = getelementptr inbounds nuw i8, ptr %1, i64 368
  %30 = load i32, ptr %29, align 8, !tbaa !33
  %31 = icmp eq i32 %28, %30
  br i1 %31, label %32, label %_ZNKSt9type_infoeqERKS_.exit.thread15

32:                                               ; preds = %26
  %33 = getelementptr inbounds nuw i8, ptr %0, i64 384
  %34 = load i32, ptr %33, align 8, !tbaa !35
  %35 = getelementptr inbounds nuw i8, ptr %1, i64 384
  %36 = load i32, ptr %35, align 8, !tbaa !35
  %37 = icmp eq i32 %34, %36
  br i1 %37, label %38, label %_ZNKSt9type_infoeqERKS_.exit.thread15

38:                                               ; preds = %32
  %39 = getelementptr inbounds nuw i8, ptr %0, i64 388
  %40 = load i8, ptr %39, align 4, !tbaa !36
  %41 = getelementptr inbounds nuw i8, ptr %1, i64 388
  %42 = load i8, ptr %41, align 4, !tbaa !36
  %43 = icmp eq i8 %40, %42
  br i1 %43, label %.preheader, label %_ZNKSt9type_infoeqERKS_.exit.thread15

.preheader:                                       ; preds = %38
  %44 = icmp slt i32 %22, 1
  br i1 %44, label %_ZNKSt9type_infoeqERKS_.exit.thread15, label %.lr.ph

.lr.ph:                                           ; preds = %.preheader
  %45 = getelementptr inbounds nuw i8, ptr %0, i64 32
  %46 = load ptr, ptr %45, align 8, !tbaa !18
  %47 = getelementptr inbounds nuw i8, ptr %1, i64 32
  %48 = load ptr, ptr %47, align 8, !tbaa !18
  %wide.trip.count = zext nneg i32 %22 to i64
  br label %49

49:                                               ; preds = %49, %.lr.ph
  %indvars.iv = phi i64 [ 0, %.lr.ph ], [ %indvars.iv.next, %49 ]
  %50 = getelementptr inbounds nuw i64, ptr %46, i64 %indvars.iv
  %51 = load i64, ptr %50, align 8, !tbaa !38
  %52 = getelementptr inbounds nuw i64, ptr %48, i64 %indvars.iv
  %53 = load i64, ptr %52, align 8, !tbaa !38
  %.not = icmp eq i64 %51, %53
  %indvars.iv.next = add nuw nsw i64 %indvars.iv, 1
  %exitcond.not = icmp ne i64 %indvars.iv.next, %wide.trip.count
  %or.cond.not = select i1 %.not, i1 %exitcond.not, i1 false
  br i1 %or.cond.not, label %49, label %_ZNKSt9type_infoeqERKS_.exit.thread15, !llvm.loop !44

_ZNKSt9type_infoeqERKS_.exit.thread15:            ; preds = %49, %.preheader, %14, %_ZNKSt9type_infoeqERKS_.exit, %_ZNKSt9type_infoeqERKS_.exit.thread, %26, %32, %38
  %.013 = phi i1 [ false, %38 ], [ false, %32 ], [ false, %26 ], [ false, %_ZNKSt9type_infoeqERKS_.exit.thread ], [ false, %_ZNKSt9type_infoeqERKS_.exit ], [ false, %14 ], [ true, %.preheader ], [ %.not, %49 ]
  ret i1 %.013
}